
some_jumps.o:     file format elf32-littleriscv


Disassembly of section .text:

00010000 <__start>:
   10000:	00000117          	auipc	sp,0x0
   10004:	11c10113          	addi	sp,sp,284 # 1011c <__stack_init>
   10008:	0140006f          	j	1001c <call_main>

0001000c <__exit>:
   1000c:	00000013          	nop
   10010:	00000013          	nop
   10014:	00000013          	nop
   10018:	00000013          	nop

0001001c <call_main>:
   1001c:	fe010113          	addi	sp,sp,-32
   10020:	00112e23          	sw	ra,28(sp)
   10024:	00812c23          	sw	s0,24(sp)
   10028:	02010413          	addi	s0,sp,32
   1002c:	024000ef          	jal	ra,10050 <main>
   10030:	fea42623          	sw	a0,-20(s0)
   10034:	fec42503          	lw	a0,-20(s0)
   10038:	fd5ff0ef          	jal	ra,1000c <__exit>
   1003c:	00000013          	nop
   10040:	01c12083          	lw	ra,28(sp)
   10044:	01812403          	lw	s0,24(sp)
   10048:	02010113          	addi	sp,sp,32
   1004c:	00008067          	ret

00010050 <main>:
   10050:	ff010113          	addi	sp,sp,-16
   10054:	00112623          	sw	ra,12(sp)
   10058:	00812423          	sw	s0,8(sp)
   1005c:	01010413          	addi	s0,sp,16
   10060:	04c000ef          	jal	ra,100ac <j1>
   10064:	00000793          	li	a5,0
   10068:	00078513          	mv	a0,a5
   1006c:	00c12083          	lw	ra,12(sp)
   10070:	00812403          	lw	s0,8(sp)
   10074:	01010113          	addi	sp,sp,16
   10078:	00008067          	ret

0001007c <j2>:
   1007c:	fe010113          	addi	sp,sp,-32
   10080:	00112e23          	sw	ra,28(sp)
   10084:	00812c23          	sw	s0,24(sp)
   10088:	02010413          	addi	s0,sp,32
   1008c:	03100793          	li	a5,49
   10090:	fef407a3          	sb	a5,-17(s0)
   10094:	050000ef          	jal	ra,100e4 <j3>
   10098:	00000013          	nop
   1009c:	01c12083          	lw	ra,28(sp)
   100a0:	01812403          	lw	s0,24(sp)
   100a4:	02010113          	addi	sp,sp,32
   100a8:	00008067          	ret

000100ac <j1>:
   100ac:	fe010113          	addi	sp,sp,-32
   100b0:	00112e23          	sw	ra,28(sp)
   100b4:	00812c23          	sw	s0,24(sp)
   100b8:	02010413          	addi	s0,sp,32
   100bc:	01800793          	li	a5,24
   100c0:	fef42623          	sw	a5,-20(s0)
   100c4:	fb9ff0ef          	jal	ra,1007c <j2>
   100c8:	fec42783          	lw	a5,-20(s0)
   100cc:	fef42423          	sw	a5,-24(s0)
   100d0:	00000013          	nop
   100d4:	01c12083          	lw	ra,28(sp)
   100d8:	01812403          	lw	s0,24(sp)
   100dc:	02010113          	addi	sp,sp,32
   100e0:	00008067          	ret

000100e4 <j3>:
   100e4:	fe010113          	addi	sp,sp,-32
   100e8:	00812e23          	sw	s0,28(sp)
   100ec:	02010413          	addi	s0,sp,32
   100f0:	00200793          	li	a5,2
   100f4:	fef42623          	sw	a5,-20(s0)
   100f8:	fec42703          	lw	a4,-20(s0)
   100fc:	00070793          	mv	a5,a4
   10100:	00179793          	slli	a5,a5,0x1
   10104:	00e787b3          	add	a5,a5,a4
   10108:	fef42423          	sw	a5,-24(s0)
   1010c:	00000013          	nop
   10110:	01c12403          	lw	s0,28(sp)
   10114:	02010113          	addi	sp,sp,32
   10118:	00008067          	ret

0001011c <__stack_init>:
   1011c:	00800000                                ....
